; ModuleID = '45/2946.c'
source_filename = "45/2946.c"
target datalayout = "e-m:e-p270:32:32-p271:32:32-p272:64:64-i64:64-f80:128-n8:16:32:64-S128"
target triple = "x86_64-pc-linux-gnu"

@.str = private unnamed_addr constant [6 x i8] c"%s %s\00", align 1
@.str.1 = private unnamed_addr constant [3 x i8] c"%d\00", align 1

; Function Attrs: noinline nounwind uwtable
define dso_local i32 @main() #0 {
  %1 = alloca i32, align 4
  %2 = alloca i32, align 4
  %3 = alloca i32, align 4
  %4 = alloca i32, align 4
  %5 = alloca i32, align 4
  %6 = alloca [60 x i8], align 16
  %7 = alloca [60 x i8], align 16
  %8 = alloca [60 x i8], align 16
  store i32 0, i32* %1, align 4
  %9 = getelementptr inbounds [60 x i8], [60 x i8]* %7, i64 0, i64 0
  %10 = getelementptr inbounds [60 x i8], [60 x i8]* %6, i64 0, i64 0
  %11 = call i32 (i8*, ...) @__isoc99_scanf(i8* getelementptr inbounds ([6 x i8], [6 x i8]* @.str, i64 0, i64 0), i8* %9, i8* %10)
  %12 = getelementptr inbounds [60 x i8], [60 x i8]* %6, i64 0, i64 0
  %13 = call i64 @strlen(i8* %12) #3
  %14 = trunc i64 %13 to i32
  store i32 %14, i32* %4, align 4
  %15 = getelementptr inbounds [60 x i8], [60 x i8]* %7, i64 0, i64 0
  %16 = call i64 @strlen(i8* %15) #3
  %17 = trunc i64 %16 to i32
  store i32 %17, i32* %5, align 4
  store i32 0, i32* %2, align 4
  br label %18

18:                                               ; preds = %65, %0
  %19 = load i32, i32* %2, align 4
  %20 = load i32, i32* %4, align 4
  %21 = load i32, i32* %5, align 4
  %22 = sub nsw i32 %20, %21
  %23 = icmp sle i32 %19, %22
  br i1 %23, label %24, label %68

24:                                               ; preds = %18
  store i32 0, i32* %3, align 4
  br label %25

25:                                               ; preds = %39, %24
  %26 = load i32, i32* %3, align 4
  %27 = load i32, i32* %5, align 4
  %28 = icmp slt i32 %26, %27
  br i1 %28, label %29, label %42

29:                                               ; preds = %25
  %30 = load i32, i32* %2, align 4
  %31 = load i32, i32* %3, align 4
  %32 = add nsw i32 %30, %31
  %33 = sext i32 %32 to i64
  %34 = getelementptr inbounds [60 x i8], [60 x i8]* %6, i64 0, i64 %33
  %35 = load i8, i8* %34, align 1
  %36 = load i32, i32* %3, align 4
  %37 = sext i32 %36 to i64
  %38 = getelementptr inbounds [60 x i8], [60 x i8]* %8, i64 0, i64 %37
  store i8 %35, i8* %38, align 1
  br label %39

39:                                               ; preds = %29
  %40 = load i32, i32* %3, align 4
  %41 = add nsw i32 %40, 1
  store i32 %41, i32* %3, align 4
  br label %25

42:                                               ; preds = %25
  %43 = load i32, i32* %5, align 4
  %44 = sext i32 %43 to i64
  %45 = getelementptr inbounds [60 x i8], [60 x i8]* %8, i64 0, i64 %44
  store i8 0, i8* %45, align 1
  %46 = getelementptr inbounds [60 x i8], [60 x i8]* %8, i64 0, i64 0
  %47 = getelementptr inbounds [60 x i8], [60 x i8]* %7, i64 0, i64 0
  %48 = call i32 @strcmp(i8* %46, i8* %47) #3
  %49 = icmp eq i32 %48, 0
  br i1 %49, label %50, label %53

50:                                               ; preds = %42
  %51 = load i32, i32* %2, align 4
  %52 = call i32 (i8*, ...) @printf(i8* getelementptr inbounds ([3 x i8], [3 x i8]* @.str.1, i64 0, i64 0), i32 %51)
  br label %68

53:                                               ; preds = %42
  store i32 0, i32* %3, align 4
  br label %54

54:                                               ; preds = %61, %53
  %55 = load i32, i32* %3, align 4
  %56 = icmp slt i32 %55, 60
  br i1 %56, label %57, label %64

57:                                               ; preds = %54
  %58 = load i32, i32* %3, align 4
  %59 = sext i32 %58 to i64
  %60 = getelementptr inbounds [60 x i8], [60 x i8]* %8, i64 0, i64 %59
  store i8 0, i8* %60, align 1
  br label %61

61:                                               ; preds = %57
  %62 = load i32, i32* %3, align 4
  %63 = add nsw i32 %62, 1
  store i32 %63, i32* %3, align 4
  br label %54

64:                                               ; preds = %54
  br label %65

65:                                               ; preds = %64
  %66 = load i32, i32* %2, align 4
  %67 = add nsw i32 %66, 1
  store i32 %67, i32* %2, align 4
  br label %18

68:                                               ; preds = %50, %18
  ret i32 0
}

declare dso_local i32 @__isoc99_scanf(i8*, ...) #1

; Function Attrs: nounwind readonly
declare dso_local i64 @strlen(i8*) #2

; Function Attrs: nounwind readonly
declare dso_local i32 @strcmp(i8*, i8*) #2

declare dso_local i32 @printf(i8*, ...) #1


!llvm.module.flags = !{!0}
!llvm.ident = !{!1}

!0 = !{i32 1, !"wchar_size", i32 4}
!1 = !{!"clang version 10.0.0-4ubuntu1 "}
